
Slave_Code.elf:     file format elf32-avr

Sections:
Idx Name          Size      VMA       LMA       File off  Algn
  0 .text         00000366  00000000  00000000  00000074  2**1
                  CONTENTS, ALLOC, LOAD, READONLY, CODE
  1 .bss          00000005  00800060  00800060  000003da  2**0
                  ALLOC
  2 .comment      00000030  00000000  00000000  000003da  2**0
                  CONTENTS, READONLY
  3 .debug_aranges 00000148  00000000  00000000  0000040a  2**0
                  CONTENTS, READONLY, DEBUGGING
  4 .debug_info   0000113f  00000000  00000000  00000552  2**0
                  CONTENTS, READONLY, DEBUGGING
  5 .debug_abbrev 00000567  00000000  00000000  00001691  2**0
                  CONTENTS, READONLY, DEBUGGING
  6 .debug_line   000005b7  00000000  00000000  00001bf8  2**0
                  CONTENTS, READONLY, DEBUGGING
  7 .debug_frame  00000228  00000000  00000000  000021b0  2**2
                  CONTENTS, READONLY, DEBUGGING
  8 .debug_str    0000069a  00000000  00000000  000023d8  2**0
                  CONTENTS, READONLY, DEBUGGING
  9 .debug_loc    0000060e  00000000  00000000  00002a72  2**0
                  CONTENTS, READONLY, DEBUGGING
 10 .debug_ranges 000000f8  00000000  00000000  00003080  2**0
                  CONTENTS, READONLY, DEBUGGING

Disassembly of section .text:

00000000 <__vectors>:
   0:	0c 94 2a 00 	jmp	0x54	; 0x54 <__ctors_end>
   4:	0c 94 3c 00 	jmp	0x78	; 0x78 <__bad_interrupt>
   8:	0c 94 3c 00 	jmp	0x78	; 0x78 <__bad_interrupt>
   c:	0c 94 3c 00 	jmp	0x78	; 0x78 <__bad_interrupt>
  10:	0c 94 3c 00 	jmp	0x78	; 0x78 <__bad_interrupt>
  14:	0c 94 3c 00 	jmp	0x78	; 0x78 <__bad_interrupt>
  18:	0c 94 3c 00 	jmp	0x78	; 0x78 <__bad_interrupt>
  1c:	0c 94 3c 00 	jmp	0x78	; 0x78 <__bad_interrupt>
  20:	0c 94 3c 00 	jmp	0x78	; 0x78 <__bad_interrupt>
  24:	0c 94 3c 00 	jmp	0x78	; 0x78 <__bad_interrupt>
  28:	0c 94 3c 00 	jmp	0x78	; 0x78 <__bad_interrupt>
  2c:	0c 94 3c 00 	jmp	0x78	; 0x78 <__bad_interrupt>
  30:	0c 94 3c 00 	jmp	0x78	; 0x78 <__bad_interrupt>
  34:	0c 94 3c 00 	jmp	0x78	; 0x78 <__bad_interrupt>
  38:	0c 94 3c 00 	jmp	0x78	; 0x78 <__bad_interrupt>
  3c:	0c 94 3c 00 	jmp	0x78	; 0x78 <__bad_interrupt>
  40:	0c 94 3c 00 	jmp	0x78	; 0x78 <__bad_interrupt>
  44:	0c 94 3c 00 	jmp	0x78	; 0x78 <__bad_interrupt>
  48:	0c 94 3c 00 	jmp	0x78	; 0x78 <__bad_interrupt>
  4c:	0c 94 3c 00 	jmp	0x78	; 0x78 <__bad_interrupt>
  50:	0c 94 3c 00 	jmp	0x78	; 0x78 <__bad_interrupt>

00000054 <__ctors_end>:
  54:	11 24       	eor	r1, r1
  56:	1f be       	out	0x3f, r1	; 63
  58:	cf e5       	ldi	r28, 0x5F	; 95
  5a:	d8 e0       	ldi	r29, 0x08	; 8
  5c:	de bf       	out	0x3e, r29	; 62
  5e:	cd bf       	out	0x3d, r28	; 61

00000060 <__do_clear_bss>:
  60:	20 e0       	ldi	r18, 0x00	; 0
  62:	a0 e6       	ldi	r26, 0x60	; 96
  64:	b0 e0       	ldi	r27, 0x00	; 0
  66:	01 c0       	rjmp	.+2      	; 0x6a <.do_clear_bss_start>

00000068 <.do_clear_bss_loop>:
  68:	1d 92       	st	X+, r1

0000006a <.do_clear_bss_start>:
  6a:	a5 36       	cpi	r26, 0x65	; 101
  6c:	b2 07       	cpc	r27, r18
  6e:	e1 f7       	brne	.-8      	; 0x68 <.do_clear_bss_loop>
  70:	0e 94 53 00 	call	0xa6	; 0xa6 <main>
  74:	0c 94 b1 01 	jmp	0x362	; 0x362 <_exit>

00000078 <__bad_interrupt>:
  78:	0c 94 00 00 	jmp	0	; 0x0 <__vectors>

0000007c <Slave_Init_system>:
#include <LCD.h>
#include <Slave_app.h>
uint_8 Received_Data =0;
void Slave_Init_system()
{
	TWI_1.Micro_state = Slave_Receiver;
  7c:	83 e0       	ldi	r24, 0x03	; 3
  7e:	80 93 64 00 	sts	0x0064, r24
	TWI_1.Presaler_Val = No_Presaler;
  82:	10 92 62 00 	sts	0x0062, r1
	TWI_1.TWI_state = TWI_Enabled;
  86:	81 e0       	ldi	r24, 0x01	; 1
  88:	80 93 61 00 	sts	0x0061, r24
	
	LCD_Init();
  8c:	0e 94 95 00 	call	0x12a	; 0x12a <LCD_Init>
	Set_SLA_Value(0b11100000);
  90:	80 ee       	ldi	r24, 0xE0	; 224
  92:	0e 94 8d 01 	call	0x31a	; 0x31a <Set_SLA_Value>
  96:	08 95       	ret

00000098 <Slave_Control_system>:
	
}

void Slave_Control_system()
{
	Received_Data =TWI_Read_Byte();
  98:	0e 94 8f 01 	call	0x31e	; 0x31e <TWI_Read_Byte>
  9c:	80 93 60 00 	sts	0x0060, r24
	Send_char_LCD(Received_Data);	
  a0:	0e 94 e1 00 	call	0x1c2	; 0x1c2 <Send_char_LCD>
  a4:	08 95       	ret

000000a6 <main>:
#include <Slave_app.h>


int main(void)
{
	Slave_Init_system();
  a6:	0e 94 3e 00 	call	0x7c	; 0x7c <Slave_Init_system>
    while(1)
    {
		Slave_Control_system();
  aa:	0e 94 4c 00 	call	0x98	; 0x98 <Slave_Control_system>
  ae:	fd cf       	rjmp	.-6      	; 0xaa <main+0x4>

000000b0 <Set_Enable_Bit>:

#include <LCD.h>
#include <util/delay.h>
static void Set_Enable_Bit()
{
	GPIO_Pin_Write(Port_B,EN_Pin,HIGH);
  b0:	41 e0       	ldi	r20, 0x01	; 1
  b2:	62 e0       	ldi	r22, 0x02	; 2
  b4:	86 e3       	ldi	r24, 0x36	; 54
  b6:	90 e0       	ldi	r25, 0x00	; 0
  b8:	0e 94 42 01 	call	0x284	; 0x284 <GPIO_Pin_Write>
	#else
		//round up by default
		__ticks_dc = (uint32_t)(ceil(fabs(__tmp)));
	#endif

	__builtin_avr_delay_cycles(__ticks_dc);
  bc:	8f e9       	ldi	r24, 0x9F	; 159
  be:	9f e0       	ldi	r25, 0x0F	; 15
  c0:	01 97       	sbiw	r24, 0x01	; 1
  c2:	f1 f7       	brne	.-4      	; 0xc0 <Set_Enable_Bit+0x10>
  c4:	00 c0       	rjmp	.+0      	; 0xc6 <Set_Enable_Bit+0x16>
  c6:	00 00       	nop
	_delay_ms(2);
	GPIO_Pin_Write(Port_B,EN_Pin,LOW);
  c8:	40 e0       	ldi	r20, 0x00	; 0
  ca:	62 e0       	ldi	r22, 0x02	; 2
  cc:	86 e3       	ldi	r24, 0x36	; 54
  ce:	90 e0       	ldi	r25, 0x00	; 0
  d0:	0e 94 42 01 	call	0x284	; 0x284 <GPIO_Pin_Write>
  d4:	8f e9       	ldi	r24, 0x9F	; 159
  d6:	9f e0       	ldi	r25, 0x0F	; 15
  d8:	01 97       	sbiw	r24, 0x01	; 1
  da:	f1 f7       	brne	.-4      	; 0xd8 <Set_Enable_Bit+0x28>
  dc:	00 c0       	rjmp	.+0      	; 0xde <Set_Enable_Bit+0x2e>
  de:	00 00       	nop
  e0:	08 95       	ret

000000e2 <Send_Command_LCD>:
	_delay_ms(10);
	#endif
	#endif
}
void Send_Command_LCD(uint_8 Command)
{
  e2:	cf 93       	push	r28
  e4:	c8 2f       	mov	r28, r24
	GPIO_Pin_Write(Port_B,RS_Pin,LOW);
	Set_Enable_Bit();
	_delay_ms(1);
	#elif defined Four_Bits_Mode
	#ifdef LCD_UPPER_DATA_PORT
	GPIO_Write_High_Nibble('B',Command);
  e6:	68 2f       	mov	r22, r24
  e8:	82 e4       	ldi	r24, 0x42	; 66
  ea:	0e 94 68 01 	call	0x2d0	; 0x2d0 <GPIO_Write_High_Nibble>
	GPIO_Pin_Write(Port_B,RS_Pin,LOW);
  ee:	40 e0       	ldi	r20, 0x00	; 0
  f0:	60 e0       	ldi	r22, 0x00	; 0
  f2:	86 e3       	ldi	r24, 0x36	; 54
  f4:	90 e0       	ldi	r25, 0x00	; 0
  f6:	0e 94 42 01 	call	0x284	; 0x284 <GPIO_Pin_Write>
	Set_Enable_Bit();
  fa:	0e 94 58 00 	call	0xb0	; 0xb0 <Set_Enable_Bit>
	GPIO_Write_High_Nibble('B',Command<<4);
  fe:	6c 2f       	mov	r22, r28
 100:	62 95       	swap	r22
 102:	60 7f       	andi	r22, 0xF0	; 240
 104:	82 e4       	ldi	r24, 0x42	; 66
 106:	0e 94 68 01 	call	0x2d0	; 0x2d0 <GPIO_Write_High_Nibble>
	GPIO_Pin_Write(Port_B,RS_Pin,LOW);
 10a:	40 e0       	ldi	r20, 0x00	; 0
 10c:	60 e0       	ldi	r22, 0x00	; 0
 10e:	86 e3       	ldi	r24, 0x36	; 54
 110:	90 e0       	ldi	r25, 0x00	; 0
 112:	0e 94 42 01 	call	0x284	; 0x284 <GPIO_Pin_Write>
	Set_Enable_Bit();
 116:	0e 94 58 00 	call	0xb0	; 0xb0 <Set_Enable_Bit>
 11a:	8f ec       	ldi	r24, 0xCF	; 207
 11c:	97 e0       	ldi	r25, 0x07	; 7
 11e:	01 97       	sbiw	r24, 0x01	; 1
 120:	f1 f7       	brne	.-4      	; 0x11e <Send_Command_LCD+0x3c>
 122:	00 c0       	rjmp	.+0      	; 0x124 <Send_Command_LCD+0x42>
 124:	00 00       	nop
	GPIO_Pin_Write(Port_B,RS_Pin,LOW);
	Set_Enable_Bit();
	_delay_ms(1);
	#endif
	#endif
}
 126:	cf 91       	pop	r28
 128:	08 95       	ret

0000012a <LCD_Init>:
 12a:	2f ef       	ldi	r18, 0xFF	; 255
 12c:	81 ee       	ldi	r24, 0xE1	; 225
 12e:	94 e0       	ldi	r25, 0x04	; 4
 130:	21 50       	subi	r18, 0x01	; 1
 132:	80 40       	sbci	r24, 0x00	; 0
 134:	90 40       	sbci	r25, 0x00	; 0
 136:	e1 f7       	brne	.-8      	; 0x130 <LCD_Init+0x6>
 138:	00 c0       	rjmp	.+0      	; 0x13a <LCD_Init+0x10>
 13a:	00 00       	nop
	Send_Command_LCD(Clear_Display);
	_delay_ms(10);
	
	#elif  defined Four_Bits_Mode
	#ifdef LCD_UPPER_DATA_PORT
	GPIO_Port_Configuration(Port_B,0XF0);
 13c:	60 ef       	ldi	r22, 0xF0	; 240
 13e:	86 e3       	ldi	r24, 0x36	; 54
 140:	90 e0       	ldi	r25, 0x00	; 0
 142:	0e 94 65 01 	call	0x2ca	; 0x2ca <GPIO_Port_Configuration>
	GPIO_Pin_Configuration(Port_B,RS_Pin,OUTPUT);
 146:	40 e0       	ldi	r20, 0x00	; 0
 148:	60 e0       	ldi	r22, 0x00	; 0
 14a:	86 e3       	ldi	r24, 0x36	; 54
 14c:	90 e0       	ldi	r25, 0x00	; 0
 14e:	0e 94 05 01 	call	0x20a	; 0x20a <GPIO_Pin_Configuration>
	GPIO_Pin_Configuration(Port_B,EN_Pin,OUTPUT);
 152:	40 e0       	ldi	r20, 0x00	; 0
 154:	62 e0       	ldi	r22, 0x02	; 2
 156:	86 e3       	ldi	r24, 0x36	; 54
 158:	90 e0       	ldi	r25, 0x00	; 0
 15a:	0e 94 05 01 	call	0x20a	; 0x20a <GPIO_Pin_Configuration>
	GPIO_Pin_Configuration(Port_B,RW_Pin,OUTPUT);
 15e:	40 e0       	ldi	r20, 0x00	; 0
 160:	61 e0       	ldi	r22, 0x01	; 1
 162:	86 e3       	ldi	r24, 0x36	; 54
 164:	90 e0       	ldi	r25, 0x00	; 0
 166:	0e 94 05 01 	call	0x20a	; 0x20a <GPIO_Pin_Configuration>
	CLEAR_BIT(LCD_CONTROL_BIT_PORT,RW_Pin);
 16a:	a9 98       	cbi	0x15, 1	; 21
 16c:	8f ec       	ldi	r24, 0xCF	; 207
 16e:	97 e0       	ldi	r25, 0x07	; 7
 170:	01 97       	sbiw	r24, 0x01	; 1
 172:	f1 f7       	brne	.-4      	; 0x170 <LCD_Init+0x46>
 174:	00 c0       	rjmp	.+0      	; 0x176 <LCD_Init+0x4c>
 176:	00 00       	nop
	_delay_ms(1);
	Send_Command_LCD(Return_Home);
 178:	82 e0       	ldi	r24, 0x02	; 2
 17a:	0e 94 71 00 	call	0xe2	; 0xe2 <Send_Command_LCD>
 17e:	8f ec       	ldi	r24, 0xCF	; 207
 180:	97 e0       	ldi	r25, 0x07	; 7
 182:	01 97       	sbiw	r24, 0x01	; 1
 184:	f1 f7       	brne	.-4      	; 0x182 <LCD_Init+0x58>
 186:	00 c0       	rjmp	.+0      	; 0x188 <LCD_Init+0x5e>
 188:	00 00       	nop
	_delay_ms(1);
	Send_Command_LCD(Function_Set_Four_BIT);
 18a:	88 e2       	ldi	r24, 0x28	; 40
 18c:	0e 94 71 00 	call	0xe2	; 0xe2 <Send_Command_LCD>
 190:	8f ec       	ldi	r24, 0xCF	; 207
 192:	97 e0       	ldi	r25, 0x07	; 7
 194:	01 97       	sbiw	r24, 0x01	; 1
 196:	f1 f7       	brne	.-4      	; 0x194 <LCD_Init+0x6a>
 198:	00 c0       	rjmp	.+0      	; 0x19a <LCD_Init+0x70>
 19a:	00 00       	nop
	_delay_ms(1);
	Send_Command_LCD(Display_On_Curser_On);
 19c:	8e e0       	ldi	r24, 0x0E	; 14
 19e:	0e 94 71 00 	call	0xe2	; 0xe2 <Send_Command_LCD>
 1a2:	8f ec       	ldi	r24, 0xCF	; 207
 1a4:	97 e0       	ldi	r25, 0x07	; 7
 1a6:	01 97       	sbiw	r24, 0x01	; 1
 1a8:	f1 f7       	brne	.-4      	; 0x1a6 <LCD_Init+0x7c>
 1aa:	00 c0       	rjmp	.+0      	; 0x1ac <LCD_Init+0x82>
 1ac:	00 00       	nop
	_delay_ms(1);
	Send_Command_LCD(Clear_Display);
 1ae:	81 e0       	ldi	r24, 0x01	; 1
 1b0:	0e 94 71 00 	call	0xe2	; 0xe2 <Send_Command_LCD>
 1b4:	8f e1       	ldi	r24, 0x1F	; 31
 1b6:	9e e4       	ldi	r25, 0x4E	; 78
 1b8:	01 97       	sbiw	r24, 0x01	; 1
 1ba:	f1 f7       	brne	.-4      	; 0x1b8 <LCD_Init+0x8e>
 1bc:	00 c0       	rjmp	.+0      	; 0x1be <LCD_Init+0x94>
 1be:	00 00       	nop
 1c0:	08 95       	ret

000001c2 <Send_char_LCD>:
	_delay_ms(1);
	#endif
	#endif
}
void Send_char_LCD(uint_8 Character)
{
 1c2:	cf 93       	push	r28
 1c4:	c8 2f       	mov	r28, r24
	GPIO_Port_Write(Port_B,Character);
	GPIO_Pin_Write(Port_B,RS_Pin,HIGH);
	Set_Enable_Bit();
	#elif defined Four_Bits_Mode
	#ifdef LCD_UPPER_DATA_PORT
	GPIO_Write_High_Nibble('B',Character);
 1c6:	68 2f       	mov	r22, r24
 1c8:	82 e4       	ldi	r24, 0x42	; 66
 1ca:	0e 94 68 01 	call	0x2d0	; 0x2d0 <GPIO_Write_High_Nibble>
	GPIO_Pin_Write(Port_B,RS_Pin,HIGH);
 1ce:	41 e0       	ldi	r20, 0x01	; 1
 1d0:	60 e0       	ldi	r22, 0x00	; 0
 1d2:	86 e3       	ldi	r24, 0x36	; 54
 1d4:	90 e0       	ldi	r25, 0x00	; 0
 1d6:	0e 94 42 01 	call	0x284	; 0x284 <GPIO_Pin_Write>
	Set_Enable_Bit();
 1da:	0e 94 58 00 	call	0xb0	; 0xb0 <Set_Enable_Bit>
	GPIO_Write_High_Nibble('B',Character<<4);
 1de:	6c 2f       	mov	r22, r28
 1e0:	62 95       	swap	r22
 1e2:	60 7f       	andi	r22, 0xF0	; 240
 1e4:	82 e4       	ldi	r24, 0x42	; 66
 1e6:	0e 94 68 01 	call	0x2d0	; 0x2d0 <GPIO_Write_High_Nibble>
	GPIO_Pin_Write(Port_B,RS_Pin,HIGH);
 1ea:	41 e0       	ldi	r20, 0x01	; 1
 1ec:	60 e0       	ldi	r22, 0x00	; 0
 1ee:	86 e3       	ldi	r24, 0x36	; 54
 1f0:	90 e0       	ldi	r25, 0x00	; 0
 1f2:	0e 94 42 01 	call	0x284	; 0x284 <GPIO_Pin_Write>
	Set_Enable_Bit();
 1f6:	0e 94 58 00 	call	0xb0	; 0xb0 <Set_Enable_Bit>
 1fa:	8f ec       	ldi	r24, 0xCF	; 207
 1fc:	97 e0       	ldi	r25, 0x07	; 7
 1fe:	01 97       	sbiw	r24, 0x01	; 1
 200:	f1 f7       	brne	.-4      	; 0x1fe <Send_char_LCD+0x3c>
 202:	00 c0       	rjmp	.+0      	; 0x204 <Send_char_LCD+0x42>
 204:	00 00       	nop
	GPIO_Pin_Write(Port_B,RS_Pin,HIGH);
	Set_Enable_Bit();
	_delay_ms(1);
	#endif
	#endif
}
 206:	cf 91       	pop	r28
 208:	08 95       	ret

0000020a <GPIO_Pin_Configuration>:
		default:
		break;
	}
}
void GPIO_Pin_Configuration (GPIO_Register* Chip_port,GPIO_pin_number pin_num,GPIO_pin_Type  O_Or_I_Mode )
{
 20a:	fc 01       	movw	r30, r24
	 //because of the factor by which we can select the functionality of the function is the Mode of pin , we perform Switch case on the mode 
	 switch (O_Or_I_Mode)  // switch is more fast and readable than if because we know the three available options
 20c:	41 30       	cpi	r20, 0x01	; 1
 20e:	21 f0       	breq	.+8      	; 0x218 <GPIO_Pin_Configuration+0xe>
 210:	38 f1       	brcs	.+78     	; 0x260 <GPIO_Pin_Configuration+0x56>
 212:	42 30       	cpi	r20, 0x02	; 2
 214:	99 f0       	breq	.+38     	; 0x23c <GPIO_Pin_Configuration+0x32>
 216:	08 95       	ret
	 {
		case INPUT_Float:
		CLEAR_BIT(Chip_port->DDR ,pin_num);
 218:	21 81       	ldd	r18, Z+1	; 0x01
 21a:	81 e0       	ldi	r24, 0x01	; 1
 21c:	90 e0       	ldi	r25, 0x00	; 0
 21e:	ac 01       	movw	r20, r24
 220:	02 c0       	rjmp	.+4      	; 0x226 <GPIO_Pin_Configuration+0x1c>
 222:	44 0f       	add	r20, r20
 224:	55 1f       	adc	r21, r21
 226:	6a 95       	dec	r22
 228:	e2 f7       	brpl	.-8      	; 0x222 <GPIO_Pin_Configuration+0x18>
 22a:	ba 01       	movw	r22, r20
 22c:	60 95       	com	r22
 22e:	86 2f       	mov	r24, r22
 230:	82 23       	and	r24, r18
 232:	81 83       	std	Z+1, r24	; 0x01
		CLEAR_BIT(Chip_port->PORT,pin_num);
 234:	82 81       	ldd	r24, Z+2	; 0x02
 236:	68 23       	and	r22, r24
 238:	62 83       	std	Z+2, r22	; 0x02
		break;
 23a:	08 95       	ret
		case INPUT_Pullup:
		CLEAR_BIT(Chip_port->DDR ,pin_num);
 23c:	21 81       	ldd	r18, Z+1	; 0x01
 23e:	81 e0       	ldi	r24, 0x01	; 1
 240:	90 e0       	ldi	r25, 0x00	; 0
 242:	ac 01       	movw	r20, r24
 244:	02 c0       	rjmp	.+4      	; 0x24a <GPIO_Pin_Configuration+0x40>
 246:	44 0f       	add	r20, r20
 248:	55 1f       	adc	r21, r21
 24a:	6a 95       	dec	r22
 24c:	e2 f7       	brpl	.-8      	; 0x246 <GPIO_Pin_Configuration+0x3c>
 24e:	ba 01       	movw	r22, r20
 250:	84 2f       	mov	r24, r20
 252:	80 95       	com	r24
 254:	82 23       	and	r24, r18
 256:	81 83       	std	Z+1, r24	; 0x01
		SET_BIT  (Chip_port->PORT,pin_num);
 258:	82 81       	ldd	r24, Z+2	; 0x02
 25a:	68 2b       	or	r22, r24
 25c:	62 83       	std	Z+2, r22	; 0x02
		break;
 25e:	08 95       	ret
		case OUTPUT:
		SET_BIT  (Chip_port->DDR ,pin_num);
 260:	21 81       	ldd	r18, Z+1	; 0x01
 262:	81 e0       	ldi	r24, 0x01	; 1
 264:	90 e0       	ldi	r25, 0x00	; 0
 266:	ac 01       	movw	r20, r24
 268:	02 c0       	rjmp	.+4      	; 0x26e <GPIO_Pin_Configuration+0x64>
 26a:	44 0f       	add	r20, r20
 26c:	55 1f       	adc	r21, r21
 26e:	6a 95       	dec	r22
 270:	e2 f7       	brpl	.-8      	; 0x26a <GPIO_Pin_Configuration+0x60>
 272:	ba 01       	movw	r22, r20
 274:	82 2f       	mov	r24, r18
 276:	84 2b       	or	r24, r20
 278:	81 83       	std	Z+1, r24	; 0x01
		CLEAR_BIT(Chip_port->PORT,pin_num);
 27a:	82 81       	ldd	r24, Z+2	; 0x02
 27c:	60 95       	com	r22
 27e:	68 23       	and	r22, r24
 280:	62 83       	std	Z+2, r22	; 0x02
 282:	08 95       	ret

00000284 <GPIO_Pin_Write>:
 	}

}
void GPIO_Pin_Write(GPIO_Register *Chip_port,GPIO_pin_number pin_num,Digital_pinState Pin_state)
{
	 switch(Pin_state)
 284:	44 23       	and	r20, r20
 286:	89 f0       	breq	.+34     	; 0x2aa <GPIO_Pin_Write+0x26>
 288:	41 30       	cpi	r20, 0x01	; 1
 28a:	f1 f4       	brne	.+60     	; 0x2c8 <GPIO_Pin_Write+0x44>
	 {
		case HIGH:
		SET_BIT(Chip_port->PORT,pin_num);
 28c:	fc 01       	movw	r30, r24
 28e:	42 81       	ldd	r20, Z+2	; 0x02
 290:	21 e0       	ldi	r18, 0x01	; 1
 292:	30 e0       	ldi	r19, 0x00	; 0
 294:	f9 01       	movw	r30, r18
 296:	02 c0       	rjmp	.+4      	; 0x29c <GPIO_Pin_Write+0x18>
 298:	ee 0f       	add	r30, r30
 29a:	ff 1f       	adc	r31, r31
 29c:	6a 95       	dec	r22
 29e:	e2 f7       	brpl	.-8      	; 0x298 <GPIO_Pin_Write+0x14>
 2a0:	bf 01       	movw	r22, r30
 2a2:	64 2b       	or	r22, r20
 2a4:	fc 01       	movw	r30, r24
 2a6:	62 83       	std	Z+2, r22	; 0x02
		break;
 2a8:	08 95       	ret
		case LOW:
		CLEAR_BIT(Chip_port->PORT,pin_num);
 2aa:	fc 01       	movw	r30, r24
 2ac:	42 81       	ldd	r20, Z+2	; 0x02
 2ae:	21 e0       	ldi	r18, 0x01	; 1
 2b0:	30 e0       	ldi	r19, 0x00	; 0
 2b2:	f9 01       	movw	r30, r18
 2b4:	02 c0       	rjmp	.+4      	; 0x2ba <GPIO_Pin_Write+0x36>
 2b6:	ee 0f       	add	r30, r30
 2b8:	ff 1f       	adc	r31, r31
 2ba:	6a 95       	dec	r22
 2bc:	e2 f7       	brpl	.-8      	; 0x2b6 <GPIO_Pin_Write+0x32>
 2be:	bf 01       	movw	r22, r30
 2c0:	60 95       	com	r22
 2c2:	64 23       	and	r22, r20
 2c4:	fc 01       	movw	r30, r24
 2c6:	62 83       	std	Z+2, r22	; 0x02
 2c8:	08 95       	ret

000002ca <GPIO_Port_Configuration>:
	/* We Must Check That THe Value Of The configuration Of The Port Does Not exceed The 8 bit (0 <-> 255) */
	if (port_Value <= Max_uint8_Value && port_Value >= Min_uint8_Value)
	{
		/* The Value On The 8 bit DDR To Define Each Pin From The 8 Pins Of The Port As input Or Output */
		/* equal the port to the 0xFF to get the output */
		Chip_port->DDR = port_Value;
 2ca:	fc 01       	movw	r30, r24
 2cc:	61 83       	std	Z+1, r22	; 0x01
 2ce:	08 95       	ret

000002d0 <GPIO_Write_High_Nibble>:
}


void GPIO_Write_High_Nibble(uint_8 Port_Name,uint_8 High_Nibble_value)
{
	High_Nibble_value &=0xf0;
 2d0:	60 7f       	andi	r22, 0xF0	; 240
	switch(Port_Name)
 2d2:	82 34       	cpi	r24, 0x42	; 66
 2d4:	79 f0       	breq	.+30     	; 0x2f4 <GPIO_Write_High_Nibble+0x24>
 2d6:	18 f4       	brcc	.+6      	; 0x2de <GPIO_Write_High_Nibble+0xe>
 2d8:	81 34       	cpi	r24, 0x41	; 65
 2da:	31 f0       	breq	.+12     	; 0x2e8 <GPIO_Write_High_Nibble+0x18>
 2dc:	08 95       	ret
 2de:	83 34       	cpi	r24, 0x43	; 67
 2e0:	79 f0       	breq	.+30     	; 0x300 <GPIO_Write_High_Nibble+0x30>
 2e2:	84 34       	cpi	r24, 0x44	; 68
 2e4:	99 f0       	breq	.+38     	; 0x30c <GPIO_Write_High_Nibble+0x3c>
 2e6:	08 95       	ret
	{
		case 'A':
		Port_A->PORT &=0x0f;
 2e8:	8b b3       	in	r24, 0x1b	; 27
 2ea:	8f 70       	andi	r24, 0x0F	; 15
 2ec:	8b bb       	out	0x1b, r24	; 27
		Port_A->PORT |=High_Nibble_value;
 2ee:	8b b3       	in	r24, 0x1b	; 27
 2f0:	86 2b       	or	r24, r22
 2f2:	8b bb       	out	0x1b, r24	; 27
		case 'B':
		Port_B->PORT &=0x0f;
 2f4:	88 b3       	in	r24, 0x18	; 24
 2f6:	8f 70       	andi	r24, 0x0F	; 15
 2f8:	88 bb       	out	0x18, r24	; 24
		Port_B->PORT |=High_Nibble_value;
 2fa:	88 b3       	in	r24, 0x18	; 24
 2fc:	86 2b       	or	r24, r22
 2fe:	88 bb       	out	0x18, r24	; 24
		case 'C':
		Port_C->PORT &=0x0f;
 300:	85 b3       	in	r24, 0x15	; 21
 302:	8f 70       	andi	r24, 0x0F	; 15
 304:	85 bb       	out	0x15, r24	; 21
		Port_C->PORT |=High_Nibble_value;
 306:	85 b3       	in	r24, 0x15	; 21
 308:	86 2b       	or	r24, r22
 30a:	85 bb       	out	0x15, r24	; 21
		case 'D':
		Port_D->PORT &=0x0f;
 30c:	82 b3       	in	r24, 0x12	; 18
 30e:	8f 70       	andi	r24, 0x0F	; 15
 310:	82 bb       	out	0x12, r24	; 18
		Port_D->PORT |=High_Nibble_value;
 312:	82 b3       	in	r24, 0x12	; 18
 314:	68 2b       	or	r22, r24
 316:	62 bb       	out	0x12, r22	; 18
 318:	08 95       	ret

0000031a <Set_SLA_Value>:
	while ((TWSR & Mask_Prescaler_val) != Data_Transmit_status);
	
}
void Set_SLA_Value(uint_8 SLA_Value)
{
	TWAR = SLA_Value;
 31a:	82 b9       	out	0x02, r24	; 2
 31c:	08 95       	ret

0000031e <TWI_Read_Byte>:
}

uint_8 TWI_Read_Byte()
{
	
	SET_BIT(TWCR,TWEN_bit);
 31e:	86 b7       	in	r24, 0x36	; 54
 320:	84 60       	ori	r24, 0x04	; 4
 322:	86 bf       	out	0x36, r24	; 54
	SET_BIT(TWCR,TWEA_bit);
 324:	86 b7       	in	r24, 0x36	; 54
 326:	80 64       	ori	r24, 0x40	; 64
 328:	86 bf       	out	0x36, r24	; 54
	SET_BIT(TWCR,TWINT_bit);
 32a:	86 b7       	in	r24, 0x36	; 54
 32c:	80 68       	ori	r24, 0x80	; 128
 32e:	86 bf       	out	0x36, r24	; 54
	while (READ_BIT(TWCR,TWINT_bit) ==0);
 330:	06 b6       	in	r0, 0x36	; 54
 332:	07 fe       	sbrs	r0, 7
 334:	fd cf       	rjmp	.-6      	; 0x330 <TWI_Read_Byte+0x12>
	while ((TWSR & Mask_Prescaler_val) != Own_SLA_A_Returned_status);
 336:	81 b1       	in	r24, 0x01	; 1
 338:	88 7f       	andi	r24, 0xF8	; 248
 33a:	80 36       	cpi	r24, 0x60	; 96
 33c:	e1 f7       	brne	.-8      	; 0x336 <TWI_Read_Byte+0x18>
	SET_BIT(TWCR,TWEN_bit);
 33e:	86 b7       	in	r24, 0x36	; 54
 340:	84 60       	ori	r24, 0x04	; 4
 342:	86 bf       	out	0x36, r24	; 54
	SET_BIT(TWCR,TWEA_bit);
 344:	86 b7       	in	r24, 0x36	; 54
 346:	80 64       	ori	r24, 0x40	; 64
 348:	86 bf       	out	0x36, r24	; 54
	SET_BIT(TWCR,TWINT_bit);
 34a:	86 b7       	in	r24, 0x36	; 54
 34c:	80 68       	ori	r24, 0x80	; 128
 34e:	86 bf       	out	0x36, r24	; 54
	while (READ_BIT(TWCR,TWINT_bit) ==0);
 350:	06 b6       	in	r0, 0x36	; 54
 352:	07 fe       	sbrs	r0, 7
 354:	fd cf       	rjmp	.-6      	; 0x350 <TWI_Read_Byte+0x32>
	while ((TWSR & Mask_Prescaler_val) != Data_Rec_A_Returned_status);
 356:	81 b1       	in	r24, 0x01	; 1
 358:	88 7f       	andi	r24, 0xF8	; 248
 35a:	80 38       	cpi	r24, 0x80	; 128
 35c:	e1 f7       	brne	.-8      	; 0x356 <TWI_Read_Byte+0x38>
	return TWDR;
 35e:	83 b1       	in	r24, 0x03	; 3
}
 360:	08 95       	ret

00000362 <_exit>:
 362:	f8 94       	cli

00000364 <__stop_program>:
 364:	ff cf       	rjmp	.-2      	; 0x364 <__stop_program>
